target datalayout = "e-m:e-p270:32:32-p271:32:32-p272:64:64-i64:64-i128:128-f80:128-n8:16:32:64-S128"
target triple = "x86_64-pc-linux-gnu"

%"class.llvm::StringRef" = type { ptr, i64 }

@.str.39 = private unnamed_addr constant [15 x i8] c"invalid number\00", align 1
@.str.40 = private unnamed_addr constant [20 x i8] c"out of range number\00", align 1

; Function Attrs: mustprogress nounwind uwtable
define linkonce_odr hidden noundef i64 @_ZNSt11char_traitsIcE6lengthEPKc(ptr noundef %0) #0 comdat align 2 {
  %2 = alloca ptr, align 8
  store ptr %0, ptr %2, align 8
  %3 = load ptr, ptr %2, align 8
  %4 = call i64 @strlen(ptr noundef %3) #14
  ret i64 %4
}

; Function Attrs: mustprogress nounwind uwtable
define linkonce_odr hidden void @_ZN4llvm9StringRefC2Ev(ptr noundef nonnull align 8 dereferenceable(16) %0) unnamed_addr #0 comdat align 2 {
  %2 = alloca ptr, align 8
  store ptr %0, ptr %2, align 8
  %3 = load ptr, ptr %2, align 8
  %4 = getelementptr inbounds nuw %"class.llvm::StringRef", ptr %3, i32 0, i32 0
  store ptr null, ptr %4, align 8
  %5 = getelementptr inbounds nuw %"class.llvm::StringRef", ptr %3, i32 0, i32 1
  store i64 0, ptr %5, align 8
  ret void
}

; Function Attrs: mustprogress nounwind uwtable
define linkonce_odr hidden void @_ZN4llvm9StringRefC2EPKc(ptr noundef nonnull align 8 dereferenceable(16) %0, ptr noundef %1) unnamed_addr #0 comdat align 2 {
  %3 = alloca ptr, align 8
  %4 = alloca ptr, align 8
  store ptr %0, ptr %3, align 8
  store ptr %1, ptr %4, align 8
  %5 = load ptr, ptr %3, align 8
  %6 = getelementptr inbounds nuw %"class.llvm::StringRef", ptr %5, i32 0, i32 0
  %7 = load ptr, ptr %4, align 8
  store ptr %7, ptr %6, align 8
  %8 = getelementptr inbounds nuw %"class.llvm::StringRef", ptr %5, i32 0, i32 1
  %9 = load ptr, ptr %4, align 8
  %10 = icmp ne ptr %9, null
  br i1 %10, label %11, label %14

11:                                               ; preds = %2
  %12 = load ptr, ptr %4, align 8
  %13 = call noundef i64 @_ZNSt11char_traitsIcE6lengthEPKc(ptr noundef %12)
  br label %15

14:                                               ; preds = %2
  br label %15

15:                                               ; preds = %14, %11
  %16 = phi i64 [ %13, %11 ], [ 0, %14 ]
  store i64 %16, ptr %8, align 8
  ret void
}

; Function Attrs: mustprogress nounwind uwtable
define dso_local { ptr, i64 } @_ZN4llvm4yaml12ScalarTraitsIsvE5inputENS_9StringRefEPvRs(ptr %0, i64 %1, ptr noundef %2, ptr noundef nonnull align 2 dereferenceable(2) %3) #0 align 2 {
  %5 = alloca %"class.llvm::StringRef", align 8
  %6 = alloca %"class.llvm::StringRef", align 8
  %7 = alloca ptr, align 8
  %8 = alloca ptr, align 8
  %9 = alloca i64, align 8
  %10 = alloca %"class.llvm::StringRef", align 8
  %11 = getelementptr inbounds nuw { ptr, i64 }, ptr %6, i32 0, i32 0
  store ptr %0, ptr %11, align 8
  %12 = getelementptr inbounds nuw { ptr, i64 }, ptr %6, i32 0, i32 1
  store i64 %1, ptr %12, align 8
  store ptr %2, ptr %7, align 8
  store ptr %3, ptr %8, align 8
  call void @llvm.memcpy.p0.p0.i64(ptr align 8 %10, ptr align 8 %6, i64 16, i1 false)
  %13 = getelementptr inbounds nuw { ptr, i64 }, ptr %10, i32 0, i32 0
  %14 = load ptr, ptr %13, align 8
  %15 = getelementptr inbounds nuw { ptr, i64 }, ptr %10, i32 0, i32 1
  %16 = load i64, ptr %15, align 8
  %17 = call noundef zeroext i1 @_ZN4llvm18getAsSignedIntegerENS_9StringRefEjRx(ptr %14, i64 %16, i32 noundef 0, ptr noundef nonnull align 8 dereferenceable(8) %9)
  br i1 %17, label %18, label %19

18:                                               ; preds = %4
  call void @_ZN4llvm9StringRefC2EPKc(ptr noundef nonnull align 8 dereferenceable(16) %5, ptr noundef @.str.39)
  br label %30

19:                                               ; preds = %4
  %20 = load i64, ptr %9, align 8
  %21 = icmp sgt i64 %20, 32767
  br i1 %21, label %25, label %22

22:                                               ; preds = %19
  %23 = load i64, ptr %9, align 8
  %24 = icmp slt i64 %23, -32768
  br i1 %24, label %25, label %26

25:                                               ; preds = %22, %19
  call void @_ZN4llvm9StringRefC2EPKc(ptr noundef nonnull align 8 dereferenceable(16) %5, ptr noundef @.str.40)
  br label %30

26:                                               ; preds = %22
  %27 = load i64, ptr %9, align 8
  %28 = trunc i64 %27 to i16
  %29 = load ptr, ptr %8, align 8
  store i16 %28, ptr %29, align 2
  call void @llvm.memset.p0.i64(ptr align 8 %5, i8 0, i64 16, i1 false)
  call void @_ZN4llvm9StringRefC2Ev(ptr noundef nonnull align 8 dereferenceable(16) %5) #14
  br label %30

30:                                               ; preds = %26, %25, %18
  %31 = load { ptr, i64 }, ptr %5, align 8
  ret { ptr, i64 } %31
}