; Function Attrs: mustprogress nounwind uwtable
define dso_local { ptr, i64 } @_ZN4llvm4yaml12ScalarTraitsIsvE5inputENS_9StringRefEPvRs(ptr %0, i64 %1, ptr noundef readnone captures(none) %2, ptr noundef nonnull writeonly align 2 captures(none) dereferenceable(2) %3) local_unnamed_addr #6 align 2 {
  %5 = alloca i64, align 8
  %6 = call noundef zeroext i1 @_ZN4llvm18getAsSignedIntegerENS_9StringRefEjRx(ptr %0, i64 %1, i32 noundef 0, ptr noundef nonnull align 8 dereferenceable(8) %5) #32
  br i1 %6, label %12, label %7

7:                                                ; preds = %4
  %8 = load i64, ptr %5, align 8
  %9 = add i64 %8, -32768
  %or.cond = icmp ult i64 %9, -65536
  br i1 %or.cond, label %12, label %10

10:                                               ; preds = %7
  %11 = trunc nsw i64 %8 to i16
  store i16 %11, ptr %3, align 2
  br label %12

12:                                               ; preds = %7, %4, %10
  %.sroa.0.0 = phi ptr [ null, %10 ], [ @.str.39, %4 ], [ @.str.40, %7 ]
  %.sroa.5.0 = phi i64 [ 0, %10 ], [ 14, %4 ], [ 19, %7 ]
  %.fca.0.insert = insertvalue { ptr, i64 } poison, ptr %.sroa.0.0, 0
  %.fca.1.insert = insertvalue { ptr, i64 } %.fca.0.insert, i64 %.sroa.5.0, 1
  ret { ptr, i64 } %.fca.1.insert
}